; Function Attrs: mustprogress uwtable
define noundef zeroext i1 @_ZN3zmq6dist_t9check_hwmEv(ptr noundef nonnull readonly align 8 captures(none) dereferenceable(49) %0) local_unnamed_addr #6 align 2 {
  %2 = getelementptr inbounds nuw i8, ptr %0, i64 24
  %3 = load i64, ptr %2, align 8, !tbaa !33
  %4 = icmp eq i64 %3, 0
  br i1 %4, label %._crit_edge, label %.lr.ph

5:                                                ; preds = %.lr.ph
  %6 = add nuw i64 %.057, 1
  %7 = load i64, ptr %2, align 8, !tbaa !33
  %.not = icmp ult i64 %6, %7
  br i1 %.not, label %.lr.ph, label %._crit_edge, !llvm.loop !40

.lr.ph:                                           ; preds = %1, %5
  %.057 = phi i64 [ %6, %5 ], [ 0, %1 ]
  %8 = load ptr, ptr %0, align 8, !tbaa !12
  %9 = getelementptr inbounds nuw ptr, ptr %8, i64 %.057
  %10 = load ptr, ptr %9, align 8, !tbaa !29
  %11 = tail call noundef zeroext i1 @_ZNK3zmq6pipe_t9check_hwmEv(ptr noundef nonnull align 8 dereferenceable(328) %10)
  br i1 %11, label %5, label %._crit_edge

._crit_edge:                                      ; preds = %5, %.lr.ph, %1
  %.lcssa = phi i1 [ true, %1 ], [ %11, %.lr.ph ], [ %11, %5 ]
  ret i1 %.lcssa
}